; Function Attrs: mustprogress nounwind uwtable
define void @_ZN8proxygen15RateLimitFilter14timeoutExpiredEv(ptr noundef nonnull align 8 dereferenceable(168) %this) unnamed_addr #8 align 2 personality ptr @__gxx_personality_v0 {
entry:
  %numEventsInCurrentInterval_ = getelementptr inbounds i8, ptr %this, i64 136
  %0 = load i32, ptr %numEventsInCurrentInterval_, align 8
  %vtable = load ptr, ptr %this, align 8
  %vfn = getelementptr inbounds i8, ptr %vtable, i64 656
  %1 = load ptr, ptr %vfn, align 8
  invoke void %1(ptr noundef nonnull align 8 dereferenceable(168) %this, i32 noundef %0)
          to label %invoke.cont unwind label %terminate.lpad

invoke.cont:                                      ; preds = %entry
  store i32 0, ptr %numEventsInCurrentInterval_, align 8
  ret void

terminate.lpad:                                   ; preds = %entry
  %2 = landingpad { ptr, i32 }
          catch ptr null
  %3 = extractvalue { ptr, i32 } %2, 0
  tail call void @__clang_call_terminate(ptr %3) #22
  unreachable
}